target datalayout = "e-m:e-p270:32:32-p271:32:32-p272:64:64-i64:64-i128:128-f80:128-n8:16:32:64-S128"
target triple = "x86_64-pc-linux-gnu"

; Function Attrs: nounwind null_pointer_is_valid sspstrong uwtable
define internal i32 @same_ftype(i32 noundef %0) #2 {
  %2 = alloca i32, align 4
  %3 = alloca i32, align 4
  store i32 %0, ptr %3, align 4
  %4 = load i32, ptr %3, align 4
  switch i32 %4, label %11 [
    i32 12, label %5
    i32 13, label %5
    i32 14, label %5
    i32 15, label %5
    i32 3, label %5
    i32 4, label %5
    i32 5, label %5
    i32 6, label %5
    i32 7, label %5
    i32 34, label %5
    i32 35, label %5
    i32 16, label %5
    i32 17, label %5
    i32 18, label %5
    i32 19, label %5
    i32 8, label %5
    i32 9, label %5
    i32 10, label %5
    i32 11, label %5
    i32 26, label %6
    i32 27, label %6
    i32 28, label %6
    i32 43, label %6
    i32 45, label %6
    i32 39, label %6
    i32 22, label %7
    i32 23, label %7
    i32 30, label %8
    i32 31, label %8
    i32 29, label %8
    i32 40, label %8
    i32 44, label %8
    i32 38, label %8
    i32 37, label %9
    i32 41, label %9
    i32 42, label %9
    i32 32, label %10
    i32 33, label %10
    i32 20, label %10
    i32 21, label %10
  ]

5:                                                ; preds = %1, %1, %1, %1, %1, %1, %1, %1, %1, %1, %1, %1, %1, %1, %1, %1, %1, %1, %1
  store i32 11, ptr %2, align 4
  br label %13

6:                                                ; preds = %1, %1, %1, %1, %1, %1
  store i32 26, ptr %2, align 4
  br label %13

7:                                                ; preds = %1, %1
  store i32 23, ptr %2, align 4
  br label %13

8:                                                ; preds = %1, %1, %1, %1, %1, %1
  store i32 30, ptr %2, align 4
  br label %13

9:                                                ; preds = %1, %1, %1
  store i32 37, ptr %2, align 4
  br label %13

10:                                               ; preds = %1, %1, %1, %1
  br label %11

11:                                               ; preds = %1, %10
  %12 = load i32, ptr %3, align 4
  store i32 %12, ptr %2, align 4
  br label %13

13:                                               ; preds = %11, %9, %8, %7, %6, %5
  %14 = load i32, ptr %2, align 4
  ret i32 %14
}

; Function Attrs: null_pointer_is_valid sspstrong uwtable
define hidden zeroext i1 @ftype_similar_types(i32 noundef %0, i32 noundef %1) #0 {
  %3 = alloca i32, align 4
  %4 = alloca i32, align 4
  store i32 %0, ptr %3, align 4
  store i32 %1, ptr %4, align 4
  %5 = load i32, ptr %3, align 4
  %6 = call i32 @same_ftype(i32 noundef %5)
  %7 = load i32, ptr %4, align 4
  %8 = call i32 @same_ftype(i32 noundef %7)
  %9 = icmp eq i32 %6, %8
  ret i1 %9
}